; Function Attrs: mustprogress ssp uwtable
define hidden void @_ZN6open3d1t8geometry6kernel10voxel_grid38GetVoxelCoordinatesAndFlattenedIndicesERKNS_4core6TensorES7_RS5_S8_if(ptr noundef nonnull align 8 dereferenceable(160) %0, ptr noundef nonnull align 8 dereferenceable(160) %1, ptr noundef nonnull align 8 dereferenceable(160) %2, ptr noundef nonnull align 8 dereferenceable(160) %3, i32 noundef %4, float noundef %5) local_unnamed_addr #0 {
  %7 = load ptr, ptr %1, align 8, !tbaa !12
  %8 = getelementptr inbounds nuw i8, ptr %7, i64 16
  %9 = load ptr, ptr %8, align 8
  %10 = tail call i64 %9(ptr noundef nonnull align 8 dereferenceable(8) %1)
  %11 = and i64 %10, 4294967295
  %12 = icmp eq i64 %11, 0
  br i1 %12, label %13, label %14

13:                                               ; preds = %6
  tail call void @_ZN6open3d1t8geometry6kernel10voxel_grid41GetVoxelCoordinatesAndFlattenedIndicesCPUERKNS_4core6TensorES7_RS5_S8_if(ptr noundef nonnull align 8 dereferenceable(160) %0, ptr noundef nonnull align 8 dereferenceable(160) %1, ptr noundef nonnull align 8 dereferenceable(160) %2, ptr noundef nonnull align 8 dereferenceable(160) %3, i32 noundef %4, float noundef %5)
  ret void

14:                                               ; preds = %6
  %15 = load ptr, ptr %1, align 8, !tbaa !12
  %16 = getelementptr inbounds nuw i8, ptr %15, i64 16
  %17 = load ptr, ptr %16, align 8
  %18 = tail call i64 %17(ptr noundef nonnull align 8 dereferenceable(8) %1)
  %19 = and i64 %18, 4294967295
  %20 = icmp eq i64 %19, 1
  br i1 %20, label %21, label %22

21:                                               ; preds = %14
  tail call void @_ZN6open3d7utility6Logger9LogError_IJEEEvPKciS4_S4_DpOT_(ptr noundef nonnull @.str, i32 noundef 78, ptr noundef nonnull @__PRETTY_FUNCTION__._ZN6open3d1t8geometry6kernel10voxel_grid38GetVoxelCoordinatesAndFlattenedIndicesERKNS_4core6TensorES7_RS5_S8_if, ptr noundef nonnull @.str.5) #30
  unreachable

22:                                               ; preds = %14
  tail call void @_ZN6open3d7utility6Logger9LogError_IJEEEvPKciS4_S4_DpOT_(ptr noundef nonnull @.str, i32 noundef 80, ptr noundef nonnull @__PRETTY_FUNCTION__._ZN6open3d1t8geometry6kernel10voxel_grid38GetVoxelCoordinatesAndFlattenedIndicesERKNS_4core6TensorES7_RS5_S8_if, ptr noundef nonnull @.str.2) #30
  unreachable
}